target datalayout = "e-m:e-p270:32:32-p271:32:32-p272:64:64-i64:64-i128:128-f80:128-n8:16:32:64-S128"
target triple = "x86_64-pc-linux-gnu"

; Function Attrs: mustprogress nounwind uwtable
define linkonce_odr noundef zeroext i1 @_ZSt5isnanf(float noundef %0) #7 comdat {
  %2 = alloca float, align 4
  store float %0, ptr %2, align 4, !tbaa !3
  %3 = load float, ptr %2, align 4, !tbaa !3
  %4 = call i1 @llvm.is.fpclass.f32(float %3, i32 3)
  ret i1 %4
}

; Function Attrs: mustprogress uwtable
define linkonce_odr hidden noundef zeroext i1 @_ZN19OpenColorIO_v2_5dev5IsNanIfEEbT_(float noundef %0) #4 comdat {
  %2 = alloca float, align 4
  store float %0, ptr %2, align 4, !tbaa !3
  %3 = load float, ptr %2, align 4, !tbaa !3
  %4 = call noundef zeroext i1 @_ZSt5isnanf(float noundef %3)
  ret i1 %4
}

; Function Attrs: mustprogress nounwind uwtable
define linkonce_odr hidden noundef float @_ZNSt14numeric_limitsIfE3maxEv() #7 comdat align 2 {
  ret float 0x47EFFFFFE0000000
}

; Function Attrs: mustprogress nounwind uwtable
define linkonce_odr hidden noundef float @_ZNSt14numeric_limitsIfE8infinityEv() #7 comdat align 2 {
  ret float 0x7FF0000000000000
}

; Function Attrs: mustprogress uwtable
define hidden noundef float @_ZN19OpenColorIO_v2_5dev13SanitizeFloatEf(float noundef %0) #4 {
  %2 = alloca float, align 4
  %3 = alloca float, align 4
  store float %0, ptr %3, align 4, !tbaa !3
  %4 = load float, ptr %3, align 4, !tbaa !3
  %5 = call noundef float @_ZNSt14numeric_limitsIfE8infinityEv() #3
  %6 = fneg float %5
  %7 = fcmp oeq float %4, %6
  br i1 %7, label %8, label %11

8:                                                ; preds = %1
  %9 = call noundef float @_ZNSt14numeric_limitsIfE3maxEv() #3
  %10 = fneg float %9
  store float %10, ptr %2, align 4
  br label %25

11:                                               ; preds = %1
  %12 = load float, ptr %3, align 4, !tbaa !3
  %13 = call noundef float @_ZNSt14numeric_limitsIfE8infinityEv() #3
  %14 = fcmp oeq float %12, %13
  br i1 %14, label %15, label %17

15:                                               ; preds = %11
  %16 = call noundef float @_ZNSt14numeric_limitsIfE3maxEv() #3
  store float %16, ptr %2, align 4
  br label %25

17:                                               ; preds = %11
  %18 = load float, ptr %3, align 4, !tbaa !3
  %19 = call noundef zeroext i1 @_ZN19OpenColorIO_v2_5dev5IsNanIfEEbT_(float noundef %18)
  br i1 %19, label %20, label %21

20:                                               ; preds = %17
  store float 0.000000e+00, ptr %2, align 4
  br label %25

21:                                               ; preds = %17
  br label %22

22:                                               ; preds = %21
  br label %23

23:                                               ; preds = %22
  %24 = load float, ptr %3, align 4, !tbaa !3
  store float %24, ptr %2, align 4
  br label %25

25:                                               ; preds = %23, %20, %15, %8
  %26 = load float, ptr %2, align 4
  ret float %26
}