; Function Attrs: mustprogress nofree norecurse nosync nounwind willreturn memory(none) uwtable
define hidden noundef float @_ZN19OpenColorIO_v2_5dev13SanitizeFloatEf(float noundef %0) local_unnamed_addr #4 {
  %2 = fcmp oeq float %0, 0xFFF0000000000000
  br i1 %2, label %6, label %3

3:                                                ; preds = %1
  %4 = fcmp oeq float %0, 0x7FF0000000000000
  br i1 %4, label %6, label %5

5:                                                ; preds = %3
  %.inv = fcmp ord float %0, 0.000000e+00
  %. = select i1 %.inv, float %0, float 0.000000e+00
  br label %6

6:                                                ; preds = %3, %1, %5
  %.0 = phi float [ %., %5 ], [ 0xC7EFFFFFE0000000, %1 ], [ 0x47EFFFFFE0000000, %3 ]
  ret float %.0
}